target datalayout = "e-m:e-p270:32:32-p271:32:32-p272:64:64-i64:64-i128:128-f80:128-n8:16:32:64-S128"
target triple = "x86_64-pc-linux-gnu"

%"class.Ipopt::RestoIterationOutput" = type { %"class.Ipopt::IterationOutput.base", %"class.Ipopt::SmartPtr.3", i8, i32, i32, double }
%"class.Ipopt::IterationOutput.base" = type { %"class.Ipopt::AlgorithmStrategyObject.base" }
%"class.Ipopt::AlgorithmStrategyObject.base" = type <{ %"class.Ipopt::ReferencedObject.base", [4 x i8], %"class.Ipopt::SmartPtr", %"class.Ipopt::SmartPtr.0", %"class.Ipopt::SmartPtr.1", %"class.Ipopt::SmartPtr.2", i8 }>
%"class.Ipopt::ReferencedObject.base" = type <{ ptr, i32 }>
%"class.Ipopt::SmartPtr" = type { ptr }
%"class.Ipopt::SmartPtr.0" = type { ptr }
%"class.Ipopt::SmartPtr.1" = type { ptr }
%"class.Ipopt::SmartPtr.2" = type { ptr }
%"class.Ipopt::SmartPtr.3" = type { ptr }
%"class.Ipopt::AlgorithmStrategyObject" = type <{ %"class.Ipopt::ReferencedObject.base", [4 x i8], %"class.Ipopt::SmartPtr", %"class.Ipopt::SmartPtr.0", %"class.Ipopt::SmartPtr.1", %"class.Ipopt::SmartPtr.2", i8, [7 x i8] }>
%"class.Ipopt::ReferencedObject" = type <{ ptr, i32, [4 x i8] }>

@_ZTVN5Ipopt23AlgorithmStrategyObjectE = linkonce_odr unnamed_addr constant { [5 x ptr] } { [5 x ptr] [ptr null, ptr @_ZTIN5Ipopt23AlgorithmStrategyObjectE, ptr @_ZN5Ipopt23AlgorithmStrategyObjectD2Ev, ptr @_ZN5Ipopt23AlgorithmStrategyObjectD0Ev, ptr @__cxa_pure_virtual] }, comdat, align 8
@_ZTVN5Ipopt16ReferencedObjectE = linkonce_odr unnamed_addr constant { [4 x ptr] } { [4 x ptr] [ptr null, ptr @_ZTIN5Ipopt16ReferencedObjectE, ptr @_ZN5Ipopt16ReferencedObjectD2Ev, ptr @_ZN5Ipopt16ReferencedObjectD0Ev] }, comdat, align 8

; Function Attrs: noinline noreturn nounwind uwtable
define linkonce_odr hidden void @__clang_call_terminate(ptr noundef %0) #10 comdat {
  %2 = call ptr @__cxa_begin_catch(ptr %0) #3
  call void @_ZSt9terminatev() #17
  unreachable
}

; Function Attrs: mustprogress uwtable
define linkonce_odr void @_ZN5Ipopt8SmartPtrIKNS_10JournalistEE15ReleasePointer_Ev(ptr noundef nonnull align 8 dereferenceable(8) %0) #4 comdat align 2 {
  %2 = alloca ptr, align 8
  store ptr %0, ptr %2, align 8, !tbaa !134
  %3 = load ptr, ptr %2, align 8
  %4 = getelementptr inbounds nuw %"class.Ipopt::SmartPtr", ptr %3, i32 0, i32 0
  %5 = load ptr, ptr %4, align 8, !tbaa !136
  %6 = icmp ne ptr %5, null
  br i1 %6, label %7, label %25

7:                                                ; preds = %1
  %8 = getelementptr inbounds nuw %"class.Ipopt::SmartPtr", ptr %3, i32 0, i32 0
  %9 = load ptr, ptr %8, align 8, !tbaa !136
  call void @_ZNK5Ipopt16ReferencedObject10ReleaseRefEPKNS_10ReferencerE(ptr noundef nonnull align 8 dereferenceable(12) %9, ptr noundef %3)
  %10 = getelementptr inbounds nuw %"class.Ipopt::SmartPtr", ptr %3, i32 0, i32 0
  %11 = load ptr, ptr %10, align 8, !tbaa !136
  %12 = call noundef i32 @_ZNK5Ipopt16ReferencedObject14ReferenceCountEv(ptr noundef nonnull align 8 dereferenceable(12) %11)
  %13 = icmp eq i32 %12, 0
  br i1 %13, label %14, label %24

14:                                               ; preds = %7
  %15 = getelementptr inbounds nuw %"class.Ipopt::SmartPtr", ptr %3, i32 0, i32 0
  %16 = load ptr, ptr %15, align 8, !tbaa !136
  %17 = icmp eq ptr %16, null
  br i1 %17, label %22, label %18

18:                                               ; preds = %14
  %19 = load ptr, ptr %16, align 8, !tbaa !10
  %20 = getelementptr inbounds ptr, ptr %19, i64 1
  %21 = load ptr, ptr %20, align 8
  call void %21(ptr noundef nonnull align 8 dereferenceable(40) %16) #3
  br label %22

22:                                               ; preds = %18, %14
  %23 = getelementptr inbounds nuw %"class.Ipopt::SmartPtr", ptr %3, i32 0, i32 0
  store ptr null, ptr %23, align 8, !tbaa !136
  br label %24

24:                                               ; preds = %22, %7
  br label %25

25:                                               ; preds = %24, %1
  ret void
}

; Function Attrs: mustprogress nounwind uwtable
define linkonce_odr void @_ZN5Ipopt8SmartPtrINS_8IpoptNLPEE15ReleasePointer_Ev(ptr noundef nonnull align 8 dereferenceable(8) %0) #5 comdat align 2 {
  %2 = alloca ptr, align 8
  store ptr %0, ptr %2, align 8, !tbaa !65
  %3 = load ptr, ptr %2, align 8
  %4 = getelementptr inbounds nuw %"class.Ipopt::SmartPtr.0", ptr %3, i32 0, i32 0
  %5 = load ptr, ptr %4, align 8, !tbaa !67
  %6 = icmp ne ptr %5, null
  br i1 %6, label %7, label %25

7:                                                ; preds = %1
  %8 = getelementptr inbounds nuw %"class.Ipopt::SmartPtr.0", ptr %3, i32 0, i32 0
  %9 = load ptr, ptr %8, align 8, !tbaa !67
  call void @_ZNK5Ipopt16ReferencedObject10ReleaseRefEPKNS_10ReferencerE(ptr noundef nonnull align 8 dereferenceable(12) %9, ptr noundef %3)
  %10 = getelementptr inbounds nuw %"class.Ipopt::SmartPtr.0", ptr %3, i32 0, i32 0
  %11 = load ptr, ptr %10, align 8, !tbaa !67
  %12 = call noundef i32 @_ZNK5Ipopt16ReferencedObject14ReferenceCountEv(ptr noundef nonnull align 8 dereferenceable(12) %11)
  %13 = icmp eq i32 %12, 0
  br i1 %13, label %14, label %24

14:                                               ; preds = %7
  %15 = getelementptr inbounds nuw %"class.Ipopt::SmartPtr.0", ptr %3, i32 0, i32 0
  %16 = load ptr, ptr %15, align 8, !tbaa !67
  %17 = icmp eq ptr %16, null
  br i1 %17, label %22, label %18

18:                                               ; preds = %14
  %19 = load ptr, ptr %16, align 8, !tbaa !10
  %20 = getelementptr inbounds ptr, ptr %19, i64 1
  %21 = load ptr, ptr %20, align 8
  call void %21(ptr noundef nonnull align 8 dereferenceable(24) %16) #3
  br label %22

22:                                               ; preds = %18, %14
  %23 = getelementptr inbounds nuw %"class.Ipopt::SmartPtr.0", ptr %3, i32 0, i32 0
  store ptr null, ptr %23, align 8, !tbaa !67
  br label %24

24:                                               ; preds = %22, %7
  br label %25

25:                                               ; preds = %24, %1
  ret void
}

; Function Attrs: mustprogress nounwind uwtable
define linkonce_odr void @_ZN5Ipopt8SmartPtrINS_9IpoptDataEE15ReleasePointer_Ev(ptr noundef nonnull align 8 dereferenceable(8) %0) #5 comdat align 2 {
  %2 = alloca ptr, align 8
  store ptr %0, ptr %2, align 8, !tbaa !62
  %3 = load ptr, ptr %2, align 8
  %4 = getelementptr inbounds nuw %"class.Ipopt::SmartPtr.1", ptr %3, i32 0, i32 0
  %5 = load ptr, ptr %4, align 8, !tbaa !64
  %6 = icmp ne ptr %5, null
  br i1 %6, label %7, label %25

7:                                                ; preds = %1
  %8 = getelementptr inbounds nuw %"class.Ipopt::SmartPtr.1", ptr %3, i32 0, i32 0
  %9 = load ptr, ptr %8, align 8, !tbaa !64
  call void @_ZNK5Ipopt16ReferencedObject10ReleaseRefEPKNS_10ReferencerE(ptr noundef nonnull align 8 dereferenceable(12) %9, ptr noundef %3)
  %10 = getelementptr inbounds nuw %"class.Ipopt::SmartPtr.1", ptr %3, i32 0, i32 0
  %11 = load ptr, ptr %10, align 8, !tbaa !64
  %12 = call noundef i32 @_ZNK5Ipopt16ReferencedObject14ReferenceCountEv(ptr noundef nonnull align 8 dereferenceable(12) %11)
  %13 = icmp eq i32 %12, 0
  br i1 %13, label %14, label %24

14:                                               ; preds = %7
  %15 = getelementptr inbounds nuw %"class.Ipopt::SmartPtr.1", ptr %3, i32 0, i32 0
  %16 = load ptr, ptr %15, align 8, !tbaa !64
  %17 = icmp eq ptr %16, null
  br i1 %17, label %22, label %18

18:                                               ; preds = %14
  %19 = load ptr, ptr %16, align 8, !tbaa !10
  %20 = getelementptr inbounds ptr, ptr %19, i64 1
  %21 = load ptr, ptr %20, align 8
  call void %21(ptr noundef nonnull align 8 dereferenceable(2232) %16) #3
  br label %22

22:                                               ; preds = %18, %14
  %23 = getelementptr inbounds nuw %"class.Ipopt::SmartPtr.1", ptr %3, i32 0, i32 0
  store ptr null, ptr %23, align 8, !tbaa !64
  br label %24

24:                                               ; preds = %22, %7
  br label %25

25:                                               ; preds = %24, %1
  ret void
}

; Function Attrs: mustprogress nounwind uwtable
define linkonce_odr void @_ZN5Ipopt8SmartPtrINS_25IpoptCalculatedQuantitiesEE15ReleasePointer_Ev(ptr noundef nonnull align 8 dereferenceable(8) %0) #5 comdat align 2 {
  %2 = alloca ptr, align 8
  store ptr %0, ptr %2, align 8, !tbaa !68
  %3 = load ptr, ptr %2, align 8
  %4 = getelementptr inbounds nuw %"class.Ipopt::SmartPtr.2", ptr %3, i32 0, i32 0
  %5 = load ptr, ptr %4, align 8, !tbaa !70
  %6 = icmp ne ptr %5, null
  br i1 %6, label %7, label %25

7:                                                ; preds = %1
  %8 = getelementptr inbounds nuw %"class.Ipopt::SmartPtr.2", ptr %3, i32 0, i32 0
  %9 = load ptr, ptr %8, align 8, !tbaa !70
  call void @_ZNK5Ipopt16ReferencedObject10ReleaseRefEPKNS_10ReferencerE(ptr noundef nonnull align 8 dereferenceable(12) %9, ptr noundef %3)
  %10 = getelementptr inbounds nuw %"class.Ipopt::SmartPtr.2", ptr %3, i32 0, i32 0
  %11 = load ptr, ptr %10, align 8, !tbaa !70
  %12 = call noundef i32 @_ZNK5Ipopt16ReferencedObject14ReferenceCountEv(ptr noundef nonnull align 8 dereferenceable(12) %11)
  %13 = icmp eq i32 %12, 0
  br i1 %13, label %14, label %24

14:                                               ; preds = %7
  %15 = getelementptr inbounds nuw %"class.Ipopt::SmartPtr.2", ptr %3, i32 0, i32 0
  %16 = load ptr, ptr %15, align 8, !tbaa !70
  %17 = icmp eq ptr %16, null
  br i1 %17, label %22, label %18

18:                                               ; preds = %14
  %19 = load ptr, ptr %16, align 8, !tbaa !10
  %20 = getelementptr inbounds ptr, ptr %19, i64 1
  %21 = load ptr, ptr %20, align 8
  call void %21(ptr noundef nonnull align 8 dereferenceable(2185) %16) #3
  br label %22

22:                                               ; preds = %18, %14
  %23 = getelementptr inbounds nuw %"class.Ipopt::SmartPtr.2", ptr %3, i32 0, i32 0
  store ptr null, ptr %23, align 8, !tbaa !70
  br label %24

24:                                               ; preds = %22, %7
  br label %25

25:                                               ; preds = %24, %1
  ret void
}

; Function Attrs: inlinehint mustprogress nounwind uwtable
define linkonce_odr noundef i32 @_ZNK5Ipopt16ReferencedObject14ReferenceCountEv(ptr noundef nonnull align 8 dereferenceable(12) %0) #11 comdat align 2 {
  %2 = alloca ptr, align 8
  store ptr %0, ptr %2, align 8, !tbaa !131
  %3 = load ptr, ptr %2, align 8
  %4 = getelementptr inbounds nuw %"class.Ipopt::ReferencedObject", ptr %3, i32 0, i32 1
  %5 = load i32, ptr %4, align 8, !tbaa !133
  ret i32 %5
}

; Function Attrs: inlinehint mustprogress nounwind uwtable
define linkonce_odr void @_ZNK5Ipopt16ReferencedObject10ReleaseRefEPKNS_10ReferencerE(ptr noundef nonnull align 8 dereferenceable(12) %0, ptr noundef %1) #11 comdat align 2 {
  %3 = alloca ptr, align 8
  %4 = alloca ptr, align 8
  store ptr %0, ptr %3, align 8, !tbaa !131
  store ptr %1, ptr %4, align 8, !tbaa !137
  %5 = load ptr, ptr %3, align 8
  %6 = getelementptr inbounds nuw %"class.Ipopt::ReferencedObject", ptr %5, i32 0, i32 1
  %7 = load i32, ptr %6, align 8, !tbaa !133
  %8 = add nsw i32 %7, -1
  store i32 %8, ptr %6, align 8, !tbaa !133
  ret void
}

; Function Attrs: mustprogress nounwind uwtable
define linkonce_odr void @_ZN5Ipopt16ReferencedObjectD2Ev(ptr noundef nonnull align 8 dereferenceable(12) %0) unnamed_addr #5 comdat align 2 {
  %2 = alloca ptr, align 8
  store ptr %0, ptr %2, align 8, !tbaa !131
  %3 = load ptr, ptr %2, align 8
  store ptr getelementptr inbounds inrange(-16, 16) ({ [4 x ptr] }, ptr @_ZTVN5Ipopt16ReferencedObjectE, i32 0, i32 0, i32 2), ptr %3, align 8, !tbaa !10
  ret void
}

; Function Attrs: mustprogress nounwind uwtable
define linkonce_odr void @_ZN5Ipopt8SmartPtrIKNS_10JournalistEED2Ev(ptr noundef nonnull align 8 dereferenceable(8) %0) unnamed_addr #5 comdat align 2 personality ptr @__gxx_personality_v0 {
  %2 = alloca ptr, align 8
  store ptr %0, ptr %2, align 8, !tbaa !134
  %3 = load ptr, ptr %2, align 8
  invoke void @_ZN5Ipopt8SmartPtrIKNS_10JournalistEE15ReleasePointer_Ev(ptr noundef nonnull align 8 dereferenceable(8) %3)
          to label %4 unwind label %5

4:                                                ; preds = %1
  ret void

5:                                                ; preds = %1
  %6 = landingpad { ptr, i32 }
          catch ptr null
  %7 = extractvalue { ptr, i32 } %6, 0
  call void @__clang_call_terminate(ptr %7) #17
  unreachable
}

; Function Attrs: mustprogress nounwind uwtable
define linkonce_odr void @_ZN5Ipopt8SmartPtrINS_8IpoptNLPEED2Ev(ptr noundef nonnull align 8 dereferenceable(8) %0) unnamed_addr #5 comdat align 2 {
  %2 = alloca ptr, align 8
  store ptr %0, ptr %2, align 8, !tbaa !65
  %3 = load ptr, ptr %2, align 8
  call void @_ZN5Ipopt8SmartPtrINS_8IpoptNLPEE15ReleasePointer_Ev(ptr noundef nonnull align 8 dereferenceable(8) %3)
  ret void
}

; Function Attrs: mustprogress nounwind uwtable
define linkonce_odr void @_ZN5Ipopt8SmartPtrINS_9IpoptDataEED2Ev(ptr noundef nonnull align 8 dereferenceable(8) %0) unnamed_addr #5 comdat align 2 {
  %2 = alloca ptr, align 8
  store ptr %0, ptr %2, align 8, !tbaa !62
  %3 = load ptr, ptr %2, align 8
  call void @_ZN5Ipopt8SmartPtrINS_9IpoptDataEE15ReleasePointer_Ev(ptr noundef nonnull align 8 dereferenceable(8) %3)
  ret void
}

; Function Attrs: mustprogress nounwind uwtable
define linkonce_odr void @_ZN5Ipopt8SmartPtrINS_25IpoptCalculatedQuantitiesEED2Ev(ptr noundef nonnull align 8 dereferenceable(8) %0) unnamed_addr #5 comdat align 2 {
  %2 = alloca ptr, align 8
  store ptr %0, ptr %2, align 8, !tbaa !68
  %3 = load ptr, ptr %2, align 8
  call void @_ZN5Ipopt8SmartPtrINS_25IpoptCalculatedQuantitiesEE15ReleasePointer_Ev(ptr noundef nonnull align 8 dereferenceable(8) %3)
  ret void
}

; Function Attrs: mustprogress nounwind uwtable
define linkonce_odr void @_ZN5Ipopt8SmartPtrINS_19OrigIterationOutputEE15ReleasePointer_Ev(ptr noundef nonnull align 8 dereferenceable(8) %0) #5 comdat align 2 {
  %2 = alloca ptr, align 8
  store ptr %0, ptr %2, align 8, !tbaa !8
  %3 = load ptr, ptr %2, align 8
  %4 = getelementptr inbounds nuw %"class.Ipopt::SmartPtr.3", ptr %3, i32 0, i32 0
  %5 = load ptr, ptr %4, align 8, !tbaa !14
  %6 = icmp ne ptr %5, null
  br i1 %6, label %7, label %25

7:                                                ; preds = %1
  %8 = getelementptr inbounds nuw %"class.Ipopt::SmartPtr.3", ptr %3, i32 0, i32 0
  %9 = load ptr, ptr %8, align 8, !tbaa !14
  call void @_ZNK5Ipopt16ReferencedObject10ReleaseRefEPKNS_10ReferencerE(ptr noundef nonnull align 8 dereferenceable(12) %9, ptr noundef %3)
  %10 = getelementptr inbounds nuw %"class.Ipopt::SmartPtr.3", ptr %3, i32 0, i32 0
  %11 = load ptr, ptr %10, align 8, !tbaa !14
  %12 = call noundef i32 @_ZNK5Ipopt16ReferencedObject14ReferenceCountEv(ptr noundef nonnull align 8 dereferenceable(12) %11)
  %13 = icmp eq i32 %12, 0
  br i1 %13, label %14, label %24

14:                                               ; preds = %7
  %15 = getelementptr inbounds nuw %"class.Ipopt::SmartPtr.3", ptr %3, i32 0, i32 0
  %16 = load ptr, ptr %15, align 8, !tbaa !14
  %17 = icmp eq ptr %16, null
  br i1 %17, label %22, label %18

18:                                               ; preds = %14
  %19 = load ptr, ptr %16, align 8, !tbaa !10
  %20 = getelementptr inbounds ptr, ptr %19, i64 1
  %21 = load ptr, ptr %20, align 8
  call void %21(ptr noundef nonnull align 8 dereferenceable(72) %16) #3
  br label %22

22:                                               ; preds = %18, %14
  %23 = getelementptr inbounds nuw %"class.Ipopt::SmartPtr.3", ptr %3, i32 0, i32 0
  store ptr null, ptr %23, align 8, !tbaa !14
  br label %24

24:                                               ; preds = %22, %7
  br label %25

25:                                               ; preds = %24, %1
  ret void
}

; Function Attrs: mustprogress nounwind uwtable
define linkonce_odr void @_ZN5Ipopt23AlgorithmStrategyObjectD2Ev(ptr noundef nonnull align 8 dereferenceable(49) %0) unnamed_addr #5 comdat align 2 {
  %2 = alloca ptr, align 8
  store ptr %0, ptr %2, align 8, !tbaa !46
  %3 = load ptr, ptr %2, align 8
  store ptr getelementptr inbounds inrange(-16, 24) ({ [5 x ptr] }, ptr @_ZTVN5Ipopt23AlgorithmStrategyObjectE, i32 0, i32 0, i32 2), ptr %3, align 8, !tbaa !10
  %4 = getelementptr inbounds nuw %"class.Ipopt::AlgorithmStrategyObject", ptr %3, i32 0, i32 5
  call void @_ZN5Ipopt8SmartPtrINS_25IpoptCalculatedQuantitiesEED2Ev(ptr noundef nonnull align 8 dereferenceable(8) %4) #3
  %5 = getelementptr inbounds nuw %"class.Ipopt::AlgorithmStrategyObject", ptr %3, i32 0, i32 4
  call void @_ZN5Ipopt8SmartPtrINS_9IpoptDataEED2Ev(ptr noundef nonnull align 8 dereferenceable(8) %5) #3
  %6 = getelementptr inbounds nuw %"class.Ipopt::AlgorithmStrategyObject", ptr %3, i32 0, i32 3
  call void @_ZN5Ipopt8SmartPtrINS_8IpoptNLPEED2Ev(ptr noundef nonnull align 8 dereferenceable(8) %6) #3
  %7 = getelementptr inbounds nuw %"class.Ipopt::AlgorithmStrategyObject", ptr %3, i32 0, i32 2
  call void @_ZN5Ipopt8SmartPtrIKNS_10JournalistEED2Ev(ptr noundef nonnull align 8 dereferenceable(8) %7) #3
  call void @_ZN5Ipopt16ReferencedObjectD2Ev(ptr noundef nonnull align 8 dereferenceable(12) %3) #3
  ret void
}

; Function Attrs: mustprogress nounwind uwtable
define linkonce_odr void @_ZN5Ipopt8SmartPtrINS_19OrigIterationOutputEED2Ev(ptr noundef nonnull align 8 dereferenceable(8) %0) unnamed_addr #5 comdat align 2 {
  %2 = alloca ptr, align 8
  store ptr %0, ptr %2, align 8, !tbaa !8
  %3 = load ptr, ptr %2, align 8
  call void @_ZN5Ipopt8SmartPtrINS_19OrigIterationOutputEE15ReleasePointer_Ev(ptr noundef nonnull align 8 dereferenceable(8) %3)
  ret void
}

; Function Attrs: mustprogress nounwind uwtable
define void @_ZN5Ipopt20RestoIterationOutputD2Ev(ptr noundef nonnull align 8 dereferenceable(88) %0) unnamed_addr #5 align 2 {
  %2 = alloca ptr, align 8
  store ptr %0, ptr %2, align 8, !tbaa !3
  %3 = load ptr, ptr %2, align 8
  store ptr getelementptr inbounds inrange(-16, 32) ({ [6 x ptr] }, ptr @_ZTVN5Ipopt20RestoIterationOutputE, i32 0, i32 0, i32 2), ptr %3, align 8, !tbaa !10
  %4 = getelementptr inbounds nuw %"class.Ipopt::RestoIterationOutput", ptr %3, i32 0, i32 1
  call void @_ZN5Ipopt8SmartPtrINS_19OrigIterationOutputEED2Ev(ptr noundef nonnull align 8 dereferenceable(8) %4) #3
  call void @_ZN5Ipopt23AlgorithmStrategyObjectD2Ev(ptr noundef nonnull align 8 dereferenceable(49) %3) #3
  ret void
}